; Function Attrs: mustprogress nounwind uwtable
define void @_ZN3g2o13VertexEllipseD2Ev(ptr noundef nonnull align 16 dereferenceable(216) %0) unnamed_addr #4 align 2 personality ptr @__gxx_personality_v0 {
  store ptr getelementptr inbounds inrange(-16, 40) (i8, ptr @_ZTVN3g2o13VertexEllipseE, i64 16), ptr %0, align 16
  %2 = getelementptr inbounds nuw i8, ptr %0, i64 192
  %3 = load ptr, ptr %2, align 16
  %.not.i.i.i = icmp eq ptr %3, null
  br i1 %.not.i.i.i, label %_ZNSt6vectorIN5Eigen6MatrixIfLi2ELi1ELi0ELi2ELi1EEESaIS2_EED2Ev.exit, label %4

4:                                                ; preds = %1
  %5 = getelementptr inbounds i8, ptr %0, i64 208
  %6 = load ptr, ptr %5, align 16
  %7 = ptrtoint ptr %6 to i64
  %8 = ptrtoint ptr %3 to i64
  %9 = sub i64 %7, %8
  tail call void @_ZdlPvm(ptr noundef nonnull %3, i64 noundef %9) #22
  br label %_ZNSt6vectorIN5Eigen6MatrixIfLi2ELi1ELi0ELi2ELi1EEESaIS2_EED2Ev.exit

_ZNSt6vectorIN5Eigen6MatrixIfLi2ELi1ELi0ELi2ELi1EEESaIS2_EED2Ev.exit: ; preds = %1, %4
  %10 = getelementptr inbounds nuw i8, ptr %0, i64 168
  %11 = load ptr, ptr %10, align 8
  %.not.i.i.i1 = icmp eq ptr %11, null
  br i1 %.not.i.i.i1, label %_ZNSt6vectorIiSaIiEED2Ev.exit, label %12

12:                                               ; preds = %_ZNSt6vectorIN5Eigen6MatrixIfLi2ELi1ELi0ELi2ELi1EEESaIS2_EED2Ev.exit
  %13 = getelementptr inbounds i8, ptr %0, i64 184
  %14 = load ptr, ptr %13, align 8
  %15 = ptrtoint ptr %14 to i64
  %16 = ptrtoint ptr %11 to i64
  %17 = sub i64 %15, %16
  tail call void @_ZdlPvm(ptr noundef nonnull %11, i64 noundef %17) #22
  br label %_ZNSt6vectorIiSaIiEED2Ev.exit

_ZNSt6vectorIiSaIiEED2Ev.exit:                    ; preds = %_ZNSt6vectorIN5Eigen6MatrixIfLi2ELi1ELi0ELi2ELi1EEESaIS2_EED2Ev.exit, %12
  tail call void @_ZN3g2o9RobotDataD2Ev(ptr noundef nonnull align 8 dereferenceable(104) %0) #23
  ret void
}